target datalayout = "e-m:e-p270:32:32-p271:32:32-p272:64:64-i64:64-i128:128-f80:128-n8:16:32:64-S128"
target triple = "x86_64-pc-linux-gnu"

%"class.std::unique_ptr" = type { %"struct.std::__uniq_ptr_data" }
%"struct.std::__uniq_ptr_data" = type { %"class.std::__uniq_ptr_impl" }
%"class.std::__uniq_ptr_impl" = type { %"class.std::tuple" }
%"class.std::tuple" = type { %"struct.std::_Tuple_impl" }
%"struct.std::_Tuple_impl" = type { %"struct.std::_Head_base.4" }
%"struct.std::_Head_base.4" = type { ptr }
%class.anon.5 = type <{ ptr, ptr, ptr, i32, [4 x i8] }>

; Function Attrs: mustprogress nounwind uwtable
define linkonce_odr noundef nonnull align 8 dereferenceable(8) ptr @_ZNSt10_Head_baseILm0EPhLb0EE7_M_headERKS1_(ptr noundef nonnull align 8 dereferenceable(8) %0) #2 comdat align 2 {
  %2 = alloca ptr, align 8
  store ptr %0, ptr %2, align 8, !tbaa !82
  %3 = load ptr, ptr %2, align 8, !tbaa !82
  %4 = getelementptr inbounds nuw %"struct.std::_Head_base.4", ptr %3, i32 0, i32 0
  ret ptr %4
}

; Function Attrs: mustprogress nounwind uwtable
define linkonce_odr noundef nonnull align 8 dereferenceable(8) ptr @_ZNSt11_Tuple_implILm0EJPhSt14default_deleteIA_hEEE7_M_headERKS4_(ptr noundef nonnull align 8 dereferenceable(8) %0) #2 comdat align 2 {
  %2 = alloca ptr, align 8
  store ptr %0, ptr %2, align 8, !tbaa !78
  %3 = load ptr, ptr %2, align 8, !tbaa !78
  %4 = call noundef nonnull align 8 dereferenceable(8) ptr @_ZNSt10_Head_baseILm0EPhLb0EE7_M_headERKS1_(ptr noundef nonnull align 8 dereferenceable(8) %3) #14
  ret ptr %4
}

; Function Attrs: mustprogress nounwind uwtable
define linkonce_odr noundef nonnull align 8 dereferenceable(8) ptr @_ZSt12__get_helperILm0EPhJSt14default_deleteIA_hEEERKT0_RKSt11_Tuple_implIXT_EJS4_DpT1_EE(ptr noundef nonnull align 8 dereferenceable(8) %0) #2 comdat {
  %2 = alloca ptr, align 8
  store ptr %0, ptr %2, align 8, !tbaa !78
  %3 = load ptr, ptr %2, align 8, !tbaa !78
  %4 = call noundef nonnull align 8 dereferenceable(8) ptr @_ZNSt11_Tuple_implILm0EJPhSt14default_deleteIA_hEEE7_M_headERKS4_(ptr noundef nonnull align 8 dereferenceable(8) %3) #14
  ret ptr %4
}

; Function Attrs: mustprogress nounwind uwtable
define linkonce_odr noundef nonnull align 8 dereferenceable(8) ptr @_ZSt3getILm0EJPhSt14default_deleteIA_hEEERKNSt13tuple_elementIXT_ESt5tupleIJDpT0_EEE4typeERKS8_(ptr noundef nonnull align 8 dereferenceable(8) %0) #2 comdat {
  %2 = alloca ptr, align 8
  store ptr %0, ptr %2, align 8, !tbaa !76
  %3 = load ptr, ptr %2, align 8, !tbaa !76
  %4 = call noundef nonnull align 8 dereferenceable(8) ptr @_ZSt12__get_helperILm0EPhJSt14default_deleteIA_hEEERKT0_RKSt11_Tuple_implIXT_EJS4_DpT1_EE(ptr noundef nonnull align 8 dereferenceable(8) %3) #14
  ret ptr %4
}

; Function Attrs: mustprogress nounwind uwtable
define linkonce_odr noundef ptr @_ZNKSt15__uniq_ptr_implIhSt14default_deleteIA_hEE6_M_ptrEv(ptr noundef nonnull align 8 dereferenceable(8) %0) #2 comdat align 2 {
  %2 = alloca ptr, align 8
  store ptr %0, ptr %2, align 8, !tbaa !74
  %3 = load ptr, ptr %2, align 8
  %4 = getelementptr inbounds nuw %"class.std::__uniq_ptr_impl", ptr %3, i32 0, i32 0
  %5 = call noundef nonnull align 8 dereferenceable(8) ptr @_ZSt3getILm0EJPhSt14default_deleteIA_hEEERKNSt13tuple_elementIXT_ESt5tupleIJDpT0_EEE4typeERKS8_(ptr noundef nonnull align 8 dereferenceable(8) %4) #14
  %6 = load ptr, ptr %5, align 8, !tbaa !28
  ret ptr %6
}

; Function Attrs: mustprogress nounwind uwtable
define linkonce_odr noundef ptr @_ZNKSt10unique_ptrIA_hSt14default_deleteIS0_EE3getEv(ptr noundef nonnull align 8 dereferenceable(8) %0) #2 comdat align 2 {
  %2 = alloca ptr, align 8
  store ptr %0, ptr %2, align 8, !tbaa !27
  %3 = load ptr, ptr %2, align 8
  %4 = getelementptr inbounds nuw %"class.std::unique_ptr", ptr %3, i32 0, i32 0
  %5 = call noundef ptr @_ZNKSt15__uniq_ptr_implIhSt14default_deleteIA_hEE6_M_ptrEv(ptr noundef nonnull align 8 dereferenceable(8) %4) #14
  ret ptr %5
}

; Function Attrs: inlinehint mustprogress uwtable
define internal noundef zeroext i1 @"_ZZL8SpeedRSARKNSt7__cxx1112basic_stringIcSt11char_traitsIcESaIcEEEP6rsa_stS6_ENK3$_1clEv"(ptr noundef nonnull align 8 dereferenceable(28) %0) #7 align 2 {
  %2 = alloca ptr, align 8
  store ptr %0, ptr %2, align 8, !tbaa !59
  %3 = load ptr, ptr %2, align 8
  %4 = getelementptr inbounds nuw %class.anon.5, ptr %3, i32 0, i32 1
  %5 = load ptr, ptr %4, align 8, !tbaa !110
  %6 = getelementptr inbounds [32 x i8], ptr %5, i64 0, i64 0
  %7 = getelementptr inbounds nuw %class.anon.5, ptr %3, i32 0, i32 2
  %8 = load ptr, ptr %7, align 8, !tbaa !111
  %9 = call noundef ptr @_ZNKSt10unique_ptrIA_hSt14default_deleteIS0_EE3getEv(ptr noundef nonnull align 8 dereferenceable(8) %8) #14
  %10 = getelementptr inbounds nuw %class.anon.5, ptr %3, i32 0, i32 3
  %11 = load i32, ptr %10, align 8, !tbaa !34
  %12 = zext i32 %11 to i64
  %13 = getelementptr inbounds nuw %class.anon.5, ptr %3, i32 0, i32 0
  %14 = load ptr, ptr %13, align 8, !tbaa !30
  %15 = call i32 @RSA_verify(i32 noundef 672, ptr noundef %6, i64 noundef 32, ptr noundef %9, i64 noundef %12, ptr noundef %14)
  %16 = icmp ne i32 %15, 0
  ret i1 %16
}

; Function Attrs: mustprogress nounwind uwtable
define linkonce_odr noundef ptr @_ZNKSt9_Any_data9_M_accessEv(ptr noundef nonnull align 8 dereferenceable(16) %0) #2 comdat align 2 {
  %2 = alloca ptr, align 8
  store ptr %0, ptr %2, align 8, !tbaa !92
  %3 = load ptr, ptr %2, align 8
  %4 = getelementptr inbounds [16 x i8], ptr %3, i64 0, i64 0
  ret ptr %4
}

; Function Attrs: mustprogress uwtable
define internal noundef zeroext i1 @"_ZSt13__invoke_implIbRZL8SpeedRSARKNSt7__cxx1112basic_stringIcSt11char_traitsIcESaIcEEEP6rsa_stS7_E3$_1JEET_St14__invoke_otherOT0_DpOT1_"(ptr noundef nonnull align 8 dereferenceable(28) %0) #0 {
  %2 = alloca ptr, align 8
  store ptr %0, ptr %2, align 8, !tbaa !59
  %3 = load ptr, ptr %2, align 8, !tbaa !59
  %4 = call noundef zeroext i1 @"_ZZL8SpeedRSARKNSt7__cxx1112basic_stringIcSt11char_traitsIcESaIcEEEP6rsa_stS6_ENK3$_1clEv"(ptr noundef nonnull align 8 dereferenceable(28) %3)
  ret i1 %4
}

; Function Attrs: mustprogress nounwind uwtable
define internal noundef nonnull align 8 dereferenceable(8) ptr @"_ZNKSt9_Any_data9_M_accessIPZL8SpeedRSARKNSt7__cxx1112basic_stringIcSt11char_traitsIcESaIcEEEP6rsa_stS8_E3$_1EERKT_v"(ptr noundef nonnull align 8 dereferenceable(16) %0) #2 align 2 {
  %2 = alloca ptr, align 8
  store ptr %0, ptr %2, align 8, !tbaa !92
  %3 = load ptr, ptr %2, align 8
  %4 = call noundef ptr @_ZNKSt9_Any_data9_M_accessEv(ptr noundef nonnull align 8 dereferenceable(16) %3) #14
  ret ptr %4
}

; Function Attrs: mustprogress uwtable
define internal noundef zeroext i1 @"_ZSt10__invoke_rIbRZL8SpeedRSARKNSt7__cxx1112basic_stringIcSt11char_traitsIcESaIcEEEP6rsa_stS7_E3$_1JEENSt9enable_ifIXsr6__and_ISt6__not_ISt7is_voidIT_EESt14is_convertibleINSt15__invoke_resultIT0_JDpT1_EE4typeESF_EEE5valueESF_E4typeEOSK_DpOSL_"(ptr noundef nonnull align 8 dereferenceable(28) %0) #0 {
  %2 = alloca ptr, align 8
  store ptr %0, ptr %2, align 8, !tbaa !59
  %3 = load ptr, ptr %2, align 8, !tbaa !59
  %4 = call noundef zeroext i1 @"_ZSt13__invoke_implIbRZL8SpeedRSARKNSt7__cxx1112basic_stringIcSt11char_traitsIcESaIcEEEP6rsa_stS7_E3$_1JEET_St14__invoke_otherOT0_DpOT1_"(ptr noundef nonnull align 8 dereferenceable(28) %3)
  ret i1 %4
}

; Function Attrs: mustprogress nounwind uwtable
define internal noundef ptr @"_ZNSt14_Function_base13_Base_managerIZL8SpeedRSARKNSt7__cxx1112basic_stringIcSt11char_traitsIcESaIcEEEP6rsa_stS8_E3$_1E14_M_get_pointerERKSt9_Any_data"(ptr noundef nonnull align 8 dereferenceable(16) %0) #2 align 2 {
  %2 = alloca ptr, align 8
  store ptr %0, ptr %2, align 8, !tbaa !92
  %3 = load ptr, ptr %2, align 8, !tbaa !92
  %4 = call noundef nonnull align 8 dereferenceable(8) ptr @"_ZNKSt9_Any_data9_M_accessIPZL8SpeedRSARKNSt7__cxx1112basic_stringIcSt11char_traitsIcESaIcEEEP6rsa_stS8_E3$_1EERKT_v"(ptr noundef nonnull align 8 dereferenceable(16) %3) #14
  %5 = load ptr, ptr %4, align 8, !tbaa !59
  ret ptr %5
}

; Function Attrs: mustprogress uwtable
define internal noundef zeroext i1 @"_ZNSt17_Function_handlerIFbvEZL8SpeedRSARKNSt7__cxx1112basic_stringIcSt11char_traitsIcESaIcEEEP6rsa_stS8_E3$_1E9_M_invokeERKSt9_Any_data"(ptr noundef nonnull align 8 dereferenceable(16) %0) #0 align 2 {
  %2 = alloca ptr, align 8
  store ptr %0, ptr %2, align 8, !tbaa !92
  %3 = load ptr, ptr %2, align 8, !tbaa !92
  %4 = call noundef ptr @"_ZNSt14_Function_base13_Base_managerIZL8SpeedRSARKNSt7__cxx1112basic_stringIcSt11char_traitsIcESaIcEEEP6rsa_stS8_E3$_1E14_M_get_pointerERKSt9_Any_data"(ptr noundef nonnull align 8 dereferenceable(16) %3) #14
  %5 = call noundef zeroext i1 @"_ZSt10__invoke_rIbRZL8SpeedRSARKNSt7__cxx1112basic_stringIcSt11char_traitsIcESaIcEEEP6rsa_stS7_E3$_1JEENSt9enable_ifIXsr6__and_ISt6__not_ISt7is_voidIT_EESt14is_convertibleINSt15__invoke_resultIT0_JDpT1_EE4typeESF_EEE5valueESF_E4typeEOSK_DpOSL_"(ptr noundef nonnull align 8 dereferenceable(28) %4)
  ret i1 %5
}