; Function Attrs: mustprogress uwtable
define internal noundef zeroext i1 @"_ZNSt17_Function_handlerIFbvEZL8SpeedRSARKNSt7__cxx1112basic_stringIcSt11char_traitsIcESaIcEEEP6rsa_stS8_E3$_1E9_M_invokeERKSt9_Any_data"(ptr noundef nonnull readonly align 8 captures(none) dereferenceable(16) %0) #0 align 2 {
  %.val = load ptr, ptr %0, align 8, !tbaa !31
  %2 = getelementptr inbounds nuw i8, ptr %.val, i64 8
  %3 = load ptr, ptr %2, align 8, !tbaa !83
  %4 = getelementptr inbounds nuw i8, ptr %.val, i64 16
  %5 = load ptr, ptr %4, align 8, !tbaa !85
  %6 = load ptr, ptr %5, align 8, !tbaa !24
  %7 = getelementptr inbounds nuw i8, ptr %.val, i64 24
  %8 = load i32, ptr %7, align 8, !tbaa !86
  %9 = zext i32 %8 to i64
  %10 = load ptr, ptr %.val, align 8, !tbaa !87
  %11 = tail call i32 @RSA_verify(i32 noundef 672, ptr noundef %3, i64 noundef 32, ptr noundef %6, i64 noundef %9, ptr noundef %10)
  %12 = icmp ne i32 %11, 0
  ret i1 %12
}